(lp0
(S'e '
p1
I570
tp2
a(S's '
p3
I496
tp4
a(S't '
p5
I373
tp6
a(S' d'
p7
I327
tp8
a(S'ai'
p9
I277
tp10
a(S' l'
p11
I272
tp12
a(S', '
p13
I258
tp14
a(S'ou'
p15
I243
tp16
a(S'es'
p17
I236
tp18
a(S're'
p19
I227
tp20
a(S'en'
p21
I217
tp22
a(S' p'
p23
I215
tp24
a(S'de'
p25
I208
tp26
a(S'n '
p27
I186
tp28
a(S'on'
p29
I176
tp30
a(S'le'
p31
I176
tp32
a(S'is'
p33
I171
tp34
a(S'it'
p35
I169
tp36
a(S' c'
p37
I167
tp38
a(S'nt'
p39
I163
tp40
a(S' v'
p41
I148
tp42
a(S' s'
p43
I146
tp44
a(S'\xc3\xa9'
p45
I141
tp46
a(S'a '
p47
I139
tp48
a(S' m'
p49
I134
tp50
a(S'er'
p51
I130
tp52
a(S' e'
p53
I130
tp54
a(S' a'
p55
I130
tp56
a(S'la'
p57
I125
tp58
a(S'ur'
p59
I124
tp60
a(S'r '
p61
I123
tp62
a(S'. '
p63
I122
tp64
a(S'il'
p65
I122
tp66
a(S'an'
p67
I120
tp68
a(S'et'
p69
I115
tp70
a(S'ne'
p71
I112
tp72
a(S'ui'
p73
I105
tp74
a(S'\xe2\x80'
p75
I104
tp76
a(S'qu'
p77
I104
tp78
a(S'us'
p79
I101
tp80
a(S'te'
p81
I100
tp82
a(S'un'
p83
I98
tp84
a(S'pa'
p85
I98
tp86
a(S' \xc3'
p87
I95
tp88
a(S'eu'
p89
I92
tp90
a(S' t'
p91
I90
tp92
a(S'in'
p93
I88
tp94
a(S'me'
p95
I87
tp96
a(S'ch'
p97
I86
tp98
a(S'tr'
p99
I86
tp100
a(S'ie'
p101
I86
tp102
a(S' j'
p103
I84
tp104
a(S'oi'
p105
I83
tp106
a(S' "'
p107
I83
tp108
a(S' n'
p109
I83
tp110
a(S'ma'
p111
I82
tp112
a(S'i '
p113
I81
tp114
a(S' f'
p115
I81
tp116
a(S'l '
p117
I80
tp118
a(S'" '
p119
I78
tp120
a(S'ue'
p121
I78
tp122
a(S'ir'
p123
I78
tp124
a(S'au'
p125
I77
tp126
a(S'\x80\x99'
p127
I76
tp128
a(S' r'
p129
I76
tp130
a(S'nd'
p131
I76
tp132
a(S'u '
p133
I74
tp134
a(S'se'
p135
I72
tp136
a(S'\xc3\xa0'
p137
I71
tp138
a(S' i'
p139
I71
tp140
a(S'ns'
p141
I69
tp142
a(S'ro'
p143
I68
tp144
a(S'ra'
p145
I67
tp146
a(S' u'
p147
I67
tp148
a(S'\xa0 '
p149
I66
tp150
a(S've'
p151
I66
tp152
a(S'co'
p153
I66
tp154
a(S'vo'
p155
I65
tp156
a(S'ar'
p157
I64
tp158
a(S'di'
p159
I63
tp160
a(S' q'
p161
I62
tp162
a(S' b'
p163
I62
tp164
a(S'ut'
p165
I61
tp166
a(S'va'
p167
I60
tp168
a(S'e,'
p169
I58
tp170
a(S'av'
p171
I58
tp172
a(S'ta'
p173
I57
tp174
a(S'sa'
p175
I57
tp176
a(S'as'
p177
I57
tp178
a(S'ri'
p179
I56
tp180
a(S'll'
p181
I56
tp182
a(S'st'
p183
I54
tp184
a(S'or'
p185
I50
tp186
a(S'je'
p187
I49
tp188
a(S'so'
p189
I49
tp190
a(S'vi'
p191
I48
tp192
a(S'to'
p193
I47
tp194
a(S'pe'
p195
I47
tp196
a(S'rs'
p197
I46
tp198
a(S'ce'
p199
I45
tp200
a(S'om'
p201
I45
tp202
a(S'ux'
p203
I44
tp204
a(S'ha'
p205
I41
tp206
a(S'ti'
p207
I41
tp208
a(S'ez'
p209
I41
tp210
a(S' o'
p211
I41
tp212
a(S'em'
p213
I40
tp214
a(S'! '
p215
I39
tp216
a(S'\xc3\xa8'
p217
I39
tp218
a(S'al'
p219
I39
tp220
a(S'da'
p221
I38
tp222
a(S's.'
p223
I38
tp224
a(S'fa'
p225
I37
tp226
a(S'mo'
p227
I37
tp228
a(S'he'
p229
I37
tp230
a(S'r\xc3'
p231
I37
tp232
a(S'e.'
p233
I37
tp234
a(S's,'
p235
I37
tp236
a(S'x '
p237
I36
tp238
a(S'mm'
p239
I36
tp240
a(S'po'
p241
I36
tp242
a(S'z '
p243
I34
tp244
a(S'i,'
p245
I33
tp246
a(S'pr'
p247
I33
tp248
a(S'lu'
p249
I33
tp250
a(S' g'
p251
I33
tp252
a(S'du'
p253
I32
tp254
a(S'ss'
p255
I32
tp256
a(S'tt'
p257
I31
tp258
a(S'rr'
p259
I31
tp260
a(S'no'
p261
I31
tp262
a(S'bo'
p263
I30
tp264
a(S"d'"
p265
I30
tp266
a(S'el'
p267
I30
tp268
a(S'lo'
p269
I30
tp270
a(S'br'
p271
I28
tp272
a(S'\xa9t'
p273
I28
tp274
a(S'ls'
p275
I28
tp276
a(S' \xe2'
p277
I28
tp278
a(S'nc'
p279
I28
tp280
a(S'am'
p281
I28
tp282
a(S'Et'
p283
I27
tp284
a(S'\x99a'
p285
I27
tp286
a(S' M'
p287
I27
tp288
a(S'mb'
p289
I26
tp290
a(S"'e"
p291
I26
tp292
a(S'do'
p293
I26
tp294
a(S'\xa9 '
p295
I26
tp296
a(S'ec'
p297
I26
tp298
a(S'at'
p299
I26
tp300
a(S'\x80\x93'
p301
I25
tp302
a(S'jo'
p303
I25
tp304
a(S'y '
p305
I25
tp306
a(S'ge'
p307
I25
tp308
a(S't,'
p309
I25
tp310
a(S'su'
p311
I25
tp312
a(S'pl'
p313
I24
tp314
a(S' h'
p315
I24
tp316
a(S'si'
p317
I24
tp318
a(S'."'
p319
I23
tp320
a(S"'a"
p321
I23
tp322
a(S'rc'
p323
I23
tp324
a(S'Ma'
p325
I22
tp326
a(S'mi'
p327
I22
tp328
a(S'ho'
p329
I22
tp330
a(S't\xc3'
p331
I22
tp332
a(S'l\xe2'
p333
I22
tp334
a(S"l'"
p335
I22
tp336
a(S'n,'
p337
I22
tp338
a(S'\xa8r'
p339
I21
tp340
a(S' E'
p341
I21
tp342
a(S'nn'
p343
I21
tp344
a(S'fe'
p345
I20
tp346
a(S'\xa9e'
p347
I20
tp348
a(S'\xc3\xa7'
p349
I20
tp350
a(S' !'
p351
I20
tp352
a(S'Ah'
p353
I19
tp354
a(S'\xc3\xaa'
p355
I19
tp356
a(S'rd'
p357
I19
tp358
a(S'l\xc3'
p359
I19
tp360
a(S'li'
p361
I19
tp362
a(S'n\xe2'
p363
I19
tp364
a(S'\x99e'
p365
I18
tp366
a(S'Ou'
p367
I18
tp368
a(S'cr'
p369
I18
tp370
a(S'ci'
p371
I18
tp372
a(S'c '
p373
I18
tp374
a(S'ei'
p375
I18
tp376
a(S'iv'
p377
I18
tp378
a(S': '
p379
I17
tp380
a(S"'u"
p381
I17
tp382
a(S'r,'
p383
I17
tp384
a(S' C'
p385
I17
tp386
a(S'sq'
p387
I17
tp388
a(S'\xa7a'
p389
I16
tp390
a(S'ig'
p391
I16
tp392
a(S'pu'
p393
I16
tp394
a(S'na'
p395
I16
tp396
a(S'Il'
p397
I15
tp398
a(S'fo'
p399
I15
tp400
a(S'gr'
p401
I15
tp402
a(S'\xa9c'
p403
I15
tp404
a(S't.'
p405
I15
tp406
a(S'r.'
p407
I15
tp408
a(S' :'
p409
I15
tp410
a(S' y'
p411
I15
tp412
a(S'.\n'
p413
I14
tp414
a(S'h,'
p415
I14
tp416
a(S'h '
p417
I14
tp418
a(S"'i"
p419
I14
tp420
a(S't-'
p421
I14
tp422
a(S'ts'
p423
I14
tp424
a(S'uc'
p425
I14
tp426
a(S"u'"
p427
I14
tp428
a(S' O'
p429
I14
tp430
a(S'nu'
p431
I14
tp432
a(S'ay'
p433
I14
tp434
a(S'ac'
p435
I14
tp436
a(S'gu'
p437
I13
tp438
a(S'ga'
p439
I13
tp440
a(S'bl'
p441
I13
tp442
a(S"'\xc3"
p443
I13
tp444
a(S'os'
p445
I13
tp446
a(S'rt'
p447
I13
tp448
a(S'ru'
p449
I13
tp450
a(S'ea'
p451
I13
tp452
a(S'io'
p453
I13
tp454
a(S'ap'
p455
I13
tp456
a(S'? '
p457
I12
tp458
a(S'bi'
p459
I12
tp460
a(S'd\xc3'
p461
I12
tp462
a(S'dr'
p463
I12
tp464
a(S'\xa9s'
p465
I12
tp466
a(S'uv'
p467
I12
tp468
a(S'ol'
p469
I12
tp470
a(S'rn'
p471
I12
tp472
a(S' I'
p473
I12
tp474
a(S' L'
p475
I12
tp476
a(S' A'
p477
I12
tp478
a(S'n\xc3'
p479
I12
tp480
a(S'ni'
p481
I12
tp482
a(S'Oh'
p483
I11
tp484
a(S'Vo'
p485
I11
tp486
a(S'\xaat'
p487
I11
tp488
a(S'ye'
p489
I11
tp490
a(S'mp'
p491
I11
tp492
a(S'hu'
p493
I11
tp494
a(S'ct'
p495
I11
tp496
a(S'u\xe2'
p497
I11
tp498
a(S'ug'
p499
I11
tp500
a(S'ev'
p501
I11
tp502
a(S' V'
p503
I11
tp504
a(S'  '
p505
I11
tp506
a(S's\xc3'
p507
I11
tp508
a(S'Je'
p509
I10
tp510
a(S'-i'
p511
I10
tp512
a(S'Bo'
p513
I10
tp514
a(S'; '
p515
I10
tp516
a(S'\xa8s'
p517
I10
tp518
a(S'm\xc3'
p519
I10
tp520
a(S"c'"
p521
I10
tp522
a(S'be'
p523
I10
tp524
a(S'ba'
p525
I10
tp526
a(S'i\xc3'
p527
I10
tp528
a(S'pi'
p529
I10
tp530
a(S'l,'
p531
I10
tp532
a(S' J'
p533
I10
tp534
a(S' D'
p535
I10
tp536
a(S'n.'
p537
I10
tp538
a(S'ng'
p539
I10
tp540
a(S'\x93O'
p541
I9
tp542
a(S'\x99i'
p543
I9
tp544
a(S"j'"
p545
I9
tp546
a(S'gl'
p547
I9
tp548
a(S'vr'
p549
I9
tp550
a(S'hi'
p551
I9
tp552
a(S'ca'
p553
I9
tp554
a(S"'o"
p555
I9
tp556
a(S'd '
p557
I9
tp558
a(S'\xc3\xb4'
p559
I9
tp560
a(S'ul'
p561
I9
tp562
a(S'ua'
p563
I9
tp564
a(S'oy'
p565
I9
tp566
a(S'rm'
p567
I9
tp568
a(S'ic'
p569
I9
tp570
a(S'p\xc3'
p571
I9
tp572
a(S' ?'
p573
I9
tp574
a(S'sp'
p575
I9
tp576
a(S"n'"
p577
I9
tp578
a(S'\x99\xc3'
p579
I8
tp580
a(S'\xb4t'
p581
I8
tp582
a(S'fu'
p583
I8
tp584
a(S'fi'
p585
I8
tp586
a(S'v\xc3'
p587
I8
tp588
a(S'cu'
p589
I8
tp590
a(S'\xa9p'
p591
I8
tp592
a(S'up'
p593
I8
tp594
a(S'ot'
p595
I8
tp596
a(S'e!'
p597
I8
tp598
a(S'ep'
p599
I8
tp600
a(S'id'
p601
I8
tp602
a(S'ia'
p603
I8
tp604
a(S'sc'
p605
I8
tp606
a(S'ab'
p607
I8
tp608
a(S'a,'
p609
I8
tp610
a(S'De'
p611
I8
tp612
a(S'Co'
p613
I7
tp614
a(S'\xaet'
p615
I7
tp616
a(S'h\xc3'
p617
I7
tp618
a(S'c\xc3'
p619
I7
tp620
a(S'\xa9g'
p621
I7
tp622
a(S'\xc3\xbb'
p623
I7
tp624
a(S'\xc3\xae'
p625
I7
tp626
a(S'uq'
p627
I7
tp628
a(S'im'
p629
I7
tp630
a(S'pp'
p631
I7
tp632
a(S' P'
p633
I7
tp634
a(S"s'"
p635
I7
tp636
a(S'nf'
p637
I7
tp638
a(S'nv'
p639
I7
tp640
a(S'ag'
p641
I7
tp642
a(S'\x93A'
p643
I6
tp644
a(S'Si'
p645
I6
tp646
a(S'"O'
p647
I6
tp648
a(S'"A'
p649
I6
tp650
a(S'Le'
p651
I6
tp652
a(S'\nL'
p653
I6
tp654
a(S'z,'
p655
I6
tp656
a(S'\xaam'
p657
I6
tp658
a(S'Mo'
p659
I6
tp660
a(S'gn'
p661
I6
tp662
a(S'c\xe2'
p663
I6
tp664
a(S"'h"
p665
I6
tp666
a(S'd,'
p667
I6
tp668
a(S'\xa9r'
p669
I6
tp670
a(S'tu'
p671
I6
tp672
a(S'uj'
p673
I6
tp674
a(S'u\xc3'
p675
I6
tp676
a(S'rl'
p677
I6
tp678
a(S'eg'
p679
I6
tp680
a(S'i.'
p681
I6
tp682
a(S' -'
p683
I6
tp684
a(S' B'
p685
I6
tp686
a(S' ,'
p687
I6
tp688
a(S'\x99y'
p689
I5
tp690
a(S'No'
p691
I5
tp692
a(S'La'
p693
I5
tp694
a(S'\n"'
p695
I5
tp696
a(S'ju'
p697
I5
tp698
a(S'ff'
p699
I5
tp700
a(S'fr'
p701
I5
tp702
a(S'fl'
p703
I5
tp704
a(S'x.'
p705
I5
tp706
a(S'g\xc3'
p707
I5
tp708
a(S'd\xe2'
p709
I5
tp710
a(S'uf'
p711
I5
tp712
a(S'op'
p713
I5
tp714
a(S'rg'
p715
I5
tp716
a(S'ex'
p717
I5
tp718
a(S'iq'
p719
I5
tp720
a(S'ps'
p721
I5
tp722
a(S'a.'
p723
I5
tp724
a(S'!"'
p725
I4
tp726
a(S'Pl'
p727
I4
tp728
a(S'\x99u'
p729
I4
tp730
a(S'?"'
p731
I4
tp732
a(S'"E'
p733
I4
tp734
a(S'"B'
p735
I4
tp736
a(S'"\n'
p737
I4
tp738
a(S"C'"
p739
I4
tp740
a(S'\xbbr'
p741
I4
tp742
a(S'Un'
p743
I4
tp744
a(S'j\xe2'
p745
I4
tp746
a(S'..'
p747
I4
tp748
a(S'\xa0,'
p749
I4
tp750
a(S'h!'
p751
I4
tp752
a(S'cl'
p753
I4
tp754
a(S"'y"
p755
I4
tp756
a(S'ud'
p757
I4
tp758
a(S'oc'
p759
I4
tp760
a(S'e-'
p761
I4
tp762
a(S'e;'
p763
I4
tp764
a(S'eh'
p765
I4
tp766
a(S'if'
p767
I4
tp768
a(S'ix'
p769
I4
tp770
a(S'l.'
p771
I4
tp772
a(S' N'
p773
I4
tp774
a(S' S'
p775
I4
tp776
a(S's-'
p777
I4
tp778
a(S'aq'
p779
I4
tp780
a(S'a\xc3'
p781
I4
tp782
a(S'\x93B'
p783
I3
tp784
a(S'Qu'
p785
I3
tp786
a(S'\x99o'
p787
I3
tp788
a(S'-l'
p789
I3
tp790
a(S'- '
p791
I3
tp792
a(S'"J'
p793
I3
tp794
a(S'"C'
p795
I3
tp796
a(S'C\xe2'
p797
I3
tp798
a(S'Ce'
p799
I3
tp800
a(S'Lo'
p801
I3
tp802
a(S'\nO'
p803
I3
tp804
a(S'j\xc3'
p805
I3
tp806
a(S'y\xc3'
p807
I3
tp808
a(S'ya'
p809
I3
tp810
a(S'x,'
p811
I3
tp812
a(S'gt'
p813
I3
tp814
a(S'go'
p815
I3
tp816
a(S'c.'
p817
I3
tp818
a(S'cc'
p819
I3
tp820
a(S'\xa9j'
p821
I3
tp822
a(S'\xa9m'
p823
I3
tp824
a(S'\xa9,'
p825
I3
tp826
a(S'u.'
p827
I3
tp828
a(S'ub'
p829
I3
tp830
a(S'u,'
p831
I3
tp832
a(S'oh'
p833
I3
tp834
a(S'od'
p835
I3
tp836
a(S'oe'
p837
I3
tp838
a(S'e\xc3'
p839
I3
tp840
a(S'i!'
p841
I3
tp842
a(S'lq'
p843
I3
tp844
a(S' T'
p845
I3
tp846
a(S' ;'
p847
I3
tp848
a(S' U'
p849
I3
tp850
a(S' .'
p851
I3
tp852
a(S's!'
p853
I3
tp854
a(S'nj'
p855
I3
tp856
a(S'nq'
p857
I3
tp858
a(S"D'"
p859
I3
tp860
a(S'\x93N'
p861
I2
tp862
a(S'\x93M'
p863
I2
tp864
a(S'!\n'
p865
I2
tp866
a(S'En'
p867
I2
tp868
a(S'\x80\x98'
p869
I2
tp870
a(S'S '
p871
I2
tp872
a(S'Gr'
p873
I2
tp874
a(S'OU'
p875
I2
tp876
a(S'On'
p877
I2
tp878
a(S'-O'
p879
I2
tp880
a(S'-v'
p881
I2
tp882
a(S'-d'
p883
I2
tp884
a(S'-t'
p885
I2
tp886
a(S'-e'
p887
I2
tp888
a(S'"Q'
p889
I2
tp890
a(S'"S'
p891
I2
tp892
a(S'""'
p893
I2
tp894
a(S'"I'
p895
I2
tp896
a(S'".'
p897
I2
tp898
a(S'"m'
p899
I2
tp900
a(S'",'
p901
I2
tp902
a(S'"D'
p903
I2
tp904
a(S'\xb9 '
p905
I2
tp906
a(S'Ch'
p907
I2
tp908
a(S'Bi'
p909
I2
tp910
a(S'Tu'
p911
I2
tp912
a(S'To'
p913
I2
tp914
a(S'\xbbl'
p915
I2
tp916
a(S'\xa7u'
p917
I2
tp918
a(S'L\xe2'
p919
I2
tp920
a(S"L'"
p921
I2
tp922
a(S'\nE'
p923
I2
tp924
a(S'\nA'
p925
I2
tp926
a(S'ja'
p927
I2
tp928
a(S'Am'
p929
I2
tp930
a(S'A '
p931
I2
tp932
a(S'q '
p933
I2
tp934
a(S'\xaan'
p935
I2
tp936
a(S'y,'
p937
I2
tp938
a(S'\xa8g'
p939
I2
tp940
a(S'\xa8t'
p941
I2
tp942
a(S'ki'
p943
I2
tp944
a(S'x-'
p945
I2
tp946
a(S'xc'
p947
I2
tp948
a(S'xt'
p949
I2
tp950
a(S'M.'
p951
I2
tp952
a(S'g.'
p953
I2
tp954
a(S'gi'
p955
I2
tp956
a(S"m'"
p957
I2
tp958
a(S'mu'
p959
I2
tp960
a(S'cs'
p961
I2
tp962
a(S'b\xc3'
p963
I2
tp964
a(S'd.'
p965
I2
tp966
a(S'\xa9q'
p967
I2
tp968
a(S'\xa9.'
p969
I2
tp970
a(S'\xa9d'
p971
I2
tp972
a(S'\xc3\xb9'
p973
I2
tp974
a(S'u?'
p975
I2
tp976
a(S'u"'
p977
I2
tp978
a(S'um'
p979
I2
tp980
a(S'oq'
p981
I2
tp982
a(S'ob'
p983
I2
tp984
a(S'o\xc3'
p985
I2
tp986
a(S'r!'
p987
I2
tp988
a(S'rb'
p989
I2
tp990
a(S'rp'
p991
I2
tp992
a(S'ef'
p993
I2
tp994
a(S'ed'
p995
I2
tp996
a(S'p '
p997
I2
tp998
a(S' G'
p999
I2
tp1000
a(S' k'
p1001
I2
tp1002
a(S'ah'
p1003
I2
tp1004
a(S'ad'
p1005
I2
tp1006
a(S'Re'
p1007
I1
tp1008
a(S'\x93E'
p1009
I1
tp1010
a(S'\x93S'
p1011
I1
tp1012
a(S'\x93 '
p1013
I1
tp1014
a(S'\xa6 '
p1015
I1
tp1016
a(S'\x98H'
p1017
I1
tp1018
a(S'\x98\xc3'
p1019
I1
tp1020
a(S'JE'
p1021
I1
tp1022
a(S"J'"
p1023
I1
tp1024
a(S'J\xc3'
p1025
I1
tp1026
a(S'El'
p1027
I1
tp1028
a(S'E '
p1029
I1
tp1030
a(S'Po'
p1031
I1
tp1032
a(S'Pe'
p1033
I1
tp1034
a(S'Pa'
p1035
I1
tp1036
a(S'\x99.'
p1037
I1
tp1038
a(S'\x99h'
p1039
I1
tp1040
a(S'\x80\xa6'
p1041
I1
tp1042
a(S'N\xc3'
p1043
I1
tp1044
a(S'?!'
p1045
I1
tp1046
a(S'?\n'
p1047
I1
tp1048
a(S'?,'
p1049
I1
tp1050
a(S"S'"
p1051
I1
tp1052
a(S'H\xc3'
p1053
I1
tp1054
a(S'He'
p1055
I1
tp1056
a(S'Or'
p1057
I1
tp1058
a(S'Ol'
p1059
I1
tp1060
a(S'Os'
p1061
I1
tp1062
a(S'VO'
p1063
I1
tp1064
a(S':\n'
p1065
I1
tp1066
a(S'-E'
p1067
I1
tp1068
a(S'-f'
p1069
I1
tp1070
a(S'-q'
p1071
I1
tp1072
a(S'-m'
p1073
I1
tp1074
a(S'-h'
p1075
I1
tp1076
a(S'-c'
p1077
I1
tp1078
a(S'-o'
p1079
I1
tp1080
a(S'-r'
p1081
I1
tp1082
a(S'-p'
p1083
I1
tp1084
a(S'-n'
p1085
I1
tp1086
a(S'-D'
p1087
I1
tp1088
a(S'"R'
p1089
I1
tp1090
a(S'"V'
p1091
I1
tp1092
a(S'"M'
p1093
I1
tp1094
a(S'"o'
p1095
I1
tp1096
a(S'"r'
p1097
I1
tp1098
a(S'Ca'
p1099
I1
tp1100
a(S'Br'
p1101
I1
tp1102
a(S'T.'
p1103
I1
tp1104
a(S'\xbbt'
p1105
I1
tp1106
a(S'\xa7\xc3'
p1107
I1
tp1108
a(S'\xa7o'
p1109
I1
tp1110
a(S'\xb4l'
p1111
I1
tp1112
a(S'US'
p1113
I1
tp1114
a(S'UI'
p1115
I1
tp1116
a(S'IS'
p1117
I1
tp1118
a(S'IT'
p1119
I1
tp1120
a(S'I '
p1121
I1
tp1122
a(S'\n-'
p1123
I1
tp1124
a(S'\nT'
p1125
I1
tp1126
a(S'\nU'
p1127
I1
tp1128
a(S'\nI'
p1129
I1
tp1130
a(S'\nM'
p1131
I1
tp1132
a(S'j '
p1133
I1
tp1134
a(S'AI'
p1135
I1
tp1136
a(S'Au'
p1137
I1
tp1138
a(S'Ar'
p1139
I1
tp1140
a(S'Ap'
p1141
I1
tp1142
a(S'f.'
p1143
I1
tp1144
a(S'f\xc3'
p1145
I1
tp1146
a(S'f '
p1147
I1
tp1148
a(S'fs'
p1149
I1
tp1150
a(S'z-'
p1151
I1
tp1152
a(S'zo'
p1153
I1
tp1154
a(S'y.'
p1155
I1
tp1156
a(S'yo'
p1157
I1
tp1158
a(S'ys'
p1159
I1
tp1160
a(S'.E'
p1161
I1
tp1162
a(S'\xa8m'
p1163
I1
tp1164
a(S'\xa8c'
p1165
I1
tp1166
a(S'\xa8b'
p1167
I1
tp1168
a(S'\xa8l'
p1169
I1
tp1170
a(S'x"'
p1171
I1
tp1172
a(S'x;'
p1173
I1
tp1174
a(S'xi'
p1175
I1
tp1176
a(S'xp'
p1177
I1
tp1178
a(S'\xa0.'
p1179
I1
tp1180
a(S'MA'
p1181
I1
tp1182
a(S'gg'
p1183
I1
tp1184
a(S'gs'
p1185
I1
tp1186
a(S'vu'
p1187
I1
tp1188
a(S'm\xe2'
p1189
I1
tp1190
a(S'm '
p1191
I1
tp1192
a(S'h?'
p1193
I1
tp1194
a(S'c!'
p1195
I1
tp1196
a(S'c"'
p1197
I1
tp1198
a(S'bs'
p1199
I1
tp1200
a(S"'O"
p1201
I1
tp1202
a(S"'."
p1203
I1
tp1204
a(S"' "
p1205
I1
tp1206
a(S'd?'
p1207
I1
tp1208
a(S'd-'
p1209
I1
tp1210
a(S'\xa9v'
p1211
I1
tp1212
a(S'\xa9b'
p1213
I1
tp1214
a(S'\xa9l'
p1215
I1
tp1216
a(S'\xa9n'
p1217
I1
tp1218
a(S't:'
p1219
I1
tp1220
a(S'tc'
p1221
I1
tp1222
a(S'u!'
p1223
I1
tp1224
a(S'oj'
p1225
I1
tp1226
a(S'of'
p1227
I1
tp1228
a(S'ox'
p1229
I1
tp1230
a(S',\xc3'
p1231
I1
tp1232
a(S',a'
p1233
I1
tp1234
a(S'r\xe2'
p1235
I1
tp1236
a(S'r?'
p1237
I1
tp1238
a(S'r-'
p1239
I1
tp1240
a(S'r"'
p1241
I1
tp1242
a(S'e?'
p1243
I1
tp1244
a(S'e:'
p1245
I1
tp1246
a(S'e"'
p1247
I1
tp1248
a(S'eb'
p1249
I1
tp1250
a(S"e'"
p1251
I1
tp1252
a(S'i?'
p1253
I1
tp1254
a(S'i-'
p1255
I1
tp1256
a(S'iz'
p1257
I1
tp1258
a(S'p;'
p1259
I1
tp1260
a(S'pt'
p1261
I1
tp1262
a(S'l-'
p1263
I1
tp1264
a(S'lm'
p1265
I1
tp1266
a(S'lh'
p1267
I1
tp1268
a(S' Q'
p1269
I1
tp1270
a(S' H'
p1271
I1
tp1272
a(S' \n'
p1273
I1
tp1274
a(S's\xe2'
p1275
I1
tp1276
a(S's?'
p1277
I1
tp1278
a(S's"'
p1279
I1
tp1280
a(S's;'
p1281
I1
tp1282
a(S'n!'
p1283
I1
tp1284
a(S'n?'
p1285
I1
tp1286
a(S'n"'
p1287
I1
tp1288
a(S'a!'
p1289
I1
tp1290
a(S'a?'
p1291
I1
tp1292
a(S'a:'
p1293
I1
tp1294
a(S'a-'
p1295
I1
tp1296
a(S'aj'
p1297
I1
tp1298
a(S'af'
p1299
I1
tp1300
a(S'D\xe2'
p1301
I1
tp1302
a(S'DI'
p1303
I1
tp1304
a(S'Da'
p1305
I1
tp1306
a.