(lp0
(S'e '
p1
F1170.0
tp2
a(S's '
p3
F831.0
tp4
a(S' d'
p5
F691.0
tp6
a(S't '
p7
F649.0
tp8
a(S' l'
p9
F545.0
tp10
a(S'es'
p11
F506.0
tp12
a(S'de'
p13
F463.0
tp14
a(S're'
p15
F431.0
tp16
a(S'on'
p17
F425.0
tp18
a(S'a '
p19
F415.0
tp20
a(S' a'
p21
F413.0
tp22
a(S' p'
p23
F394.0
tp24
a(S'ou'
p25
F388.0
tp26
a(S'en'
p27
F385.0
tp28
a(S' e'
p29
F383.0
tp30
a(S'le'
p31
F378.0
tp32
a(S', '
p33
F365.0
tp34
a(S'ai'
p35
F342.0
tp36
a(S'nt'
p37
F335.0
tp38
a(S'et'
p39
F329.0
tp40
a(S'it'
p41
F327.0
tp42
a(S'te'
p43
F319.0
tp44
a(S'er'
p45
F310.0
tp46
a(S'n '
p47
F308.0
tp48
a(S' c'
p49
F304.0
tp50
a(S' s'
p51
F287.0
tp52
a(S'la'
p53
F249.0
tp54
a(S'. '
p55
F233.0
tp56
a(S'is'
p57
F232.0
tp58
a(S'ne'
p59
F222.0
tp60
a(S'an'
p61
F210.0
tp62
a(S'r '
p63
F203.0
tp64
a(S' m'
p65
F203.0
tp66
a(S'ti'
p67
F202.0
tp68
a(S'me'
p69
F194.0
tp70
a(S'ur'
p71
F194.0
tp72
a(S'qu'
p73
F188.0
tp74
a(S'oi'
p75
F186.0
tp76
a(S' t'
p77
F175.0
tp78
a(S' v'
p79
F174.0
tp80
a(S'un'
p81
F172.0
tp82
a(S'il'
p83
F171.0
tp84
a(S'in'
p85
F163.0
tp86
a(S'ro'
p87
F162.0
tp88
a(S'ns'
p89
F159.0
tp90
a(S'ie'
p91
F158.0
tp92
a(S'co'
p93
F155.0
tp94
a(S' n'
p95
F148.0
tp96
a(S'ar'
p97
F148.0
tp98
a(S'u '
p99
F147.0
tp100
a(S'se'
p101
F147.0
tp102
a(S'pa'
p103
F145.0
tp104
a(S'au'
p105
F143.0
tp106
a(S'ue'
p107
F141.0
tp108
a(S'ui'
p109
F141.0
tp110
a(S'tr'
p111
F138.0
tp112
a(S'ra'
p113
F138.0
tp114
a(S'us'
p115
F135.0
tp116
a(S'eu'
p117
F132.0
tp118
a(S'so'
p119
F130.0
tp120
a(S'ma'
p121
F129.0
tp122
a(S'ut'
p123
F129.0
tp124
a(S'pe'
p125
F127.0
tp126
a(S'io'
p127
F126.0
tp128
a(S' r'
p129
F124.0
tp130
a(S'ir'
p131
F122.0
tp132
a(S' i'
p133
F122.0
tp134
a(S' o'
p135
F120.0
tp136
a(S'nd'
p137
F120.0
tp138
a(S'l '
p139
F116.0
tp140
a(S'ce'
p141
F115.0
tp142
a(S' f'
p143
F115.0
tp144
a(S'i '
p145
F114.0
tp146
a(S'e,'
p147
F113.0
tp148
a(S' q'
p149
F113.0
tp150
a(S' u'
p151
F113.0
tp152
a(S'to'
p153
F110.0
tp154
a(S'ri'
p155
F109.0
tp156
a(S'sa'
p157
F109.0
tp158
a(S'at'
p159
F109.0
tp160
a(S'li'
p161
F108.0
tp162
a(S've'
p163
F107.0
tp164
a(S'ch'
p165
F107.0
tp166
a(S'em'
p167
F107.0
tp168
a(S' j'
p169
F104.0
tp170
a(S'di'
p171
F104.0
tp172
a(S"l'"
p173
F98.0
tp174
a(S'ta'
p175
F95.0
tp176
a(S'rs'
p177
F95.0
tp178
a(S'al'
p179
F95.0
tp180
a(S"'e"
p181
F94.0
tp182
a(S'ec'
p183
F94.0
tp184
a(S'vo'
p185
F92.0
tp186
a(S'pr'
p187
F90.0
tp188
a(S'st'
p189
F87.0
tp190
a(S'll'
p191
F85.0
tp192
a(S'el'
p193
F82.0
tp194
a(S' b'
p195
F82.0
tp196
a(S'as'
p197
F82.0
tp198
a(S'om'
p199
F81.0
tp200
a(S'dr'
p201
F81.0
tp202
a(S"'a"
p203
F80.0
tp204
a(S'rt'
p205
F79.0
tp206
a(S'or'
p207
F78.0
tp208
a(S'va'
p209
F77.0
tp210
a(S'ss'
p211
F75.0
tp212
a(S'na'
p213
F74.0
tp214
a(S'av'
p215
F74.0
tp216
a(S'ux'
p217
F73.0
tp218
a(S'vi'
p219
F71.0
tp220
a(S'da'
p221
F71.0
tp222
a(S"d'"
p223
F66.0
tp224
a(S'mm'
p225
F65.0
tp226
a(S'nc'
p227
F65.0
tp228
a(S'x '
p229
F64.0
tp230
a(S'ic'
p231
F64.0
tp232
a(S'si'
p233
F64.0
tp234
a(S'je'
p235
F63.0
tp236
a(S'e.'
p237
F63.0
tp238
a(S'nn'
p239
F62.0
tp240
a(S'po'
p241
F61.0
tp242
a(S's.'
p243
F61.0
tp244
a(S'du'
p245
F59.0
tp246
a(S'ge'
p247
F57.0
tp248
a(S'fa'
p249
F56.0
tp250
a(S'su'
p251
F56.0
tp252
a(S'mo'
p253
F55.0
tp254
a(S'ct'
p255
F55.0
tp256
a(S'pl'
p257
F55.0
tp258
a(S'ts'
p259
F54.0
tp260
a(S'am'
p261
F54.0
tp262
a(S'mi'
p263
F53.0
tp264
a(S's,'
p265
F53.0
tp266
a(S'ha'
p267
F52.0
tp268
a(S'he'
p269
F50.0
tp270
a(S'ci'
p271
F50.0
tp272
a(S'cl'
p273
F50.0
tp274
a(S'lo'
p275
F50.0
tp276
a(S'lu'
p277
F47.0
tp278
a(S'no'
p279
F47.0
tp280
a(S'ni'
p281
F47.0
tp282
a(S'iv'
p283
F45.0
tp284
a(S' g'
p285
F45.0
tp286
a(S'ca'
p287
F44.0
tp288
a(S'br'
p289
F44.0
tp290
a(S'ho'
p291
F43.0
tp292
a(S'ez'
p293
F41.0
tp294
a(S'fo'
p295
F40.0
tp296
a(S'bo'
p297
F40.0
tp298
a(S'rr'
p299
F40.0
tp300
a(S'ac'
p301
F40.0
tp302
a(S'! '
p303
F39.0
tp304
a(S't,'
p305
F39.0
tp306
a(S'ig'
p307
F39.0
tp308
a(S'do'
p309
F39.0
tp310
a(S'tt'
p311
F38.0
tp312
a(S'ee'
p313
F37.0
tp314
a(S'ei'
p315
F37.0
tp316
a(S' h'
p317
F37.0
tp318
a(S'ga'
p319
F36.0
tp320
a(S"u'"
p321
F36.0
tp322
a(S'rc'
p323
F36.0
tp324
a(S'ls'
p325
F35.0
tp326
a(S'z '
p327
F34.0
tp328
a(S'mb'
p329
F34.0
tp330
a(S'bl'
p331
F34.0
tp332
a(S"'i"
p333
F34.0
tp334
a(S'eg'
p335
F34.0
tp336
a(S'i,'
p337
F34.0
tp338
a(S'n,'
p339
F34.0
tp340
a(S'be'
p341
F33.0
tp342
a(S'ul'
p343
F32.0
tp344
a(S'id'
p345
F32.0
tp346
a(S'fe'
p347
F31.0
tp348
a(S'cu'
p349
F31.0
tp350
a(S'ib'
p351
F31.0
tp352
a(S'ot'
p353
F30.0
tp354
a(S'y '
p355
F29.0
tp356
a(S"n'"
p357
F29.0
tp358
a(S'jo'
p359
F28.0
tp360
a(S'uc'
p361
F28.0
tp362
a(S'oc'
p363
F28.0
tp364
a(S"'u"
p365
F27.0
tp366
a(S'tu'
p367
F27.0
tp368
a(S'ol'
p369
F27.0
tp370
a(S'ep'
p371
F27.0
tp372
a(S'ia'
p373
F27.0
tp374
a(S'nu'
p375
F27.0
tp376
a(S'gr'
p377
F26.0
tp378
a(S'cr'
p379
F26.0
tp380
a(S'bi'
p381
F26.0
tp382
a(S'ev'
p383
F26.0
tp384
a(S'pu'
p385
F26.0
tp386
a(S'c '
p387
F25.0
tp388
a(S'iq'
p389
F25.0
tp390
a(S' 2'
p391
F25.0
tp392
a(S'mp'
p393
F24.0
tp394
a(S'rd'
p395
F24.0
tp396
a(S'im'
p397
F24.0
tp398
a(S' 1'
p399
F24.0
tp400
a(S'ay'
p401
F24.0
tp402
a(S'ag'
p403
F24.0
tp404
a(S"c'"
p405
F23.0
tp406
a(S"'o"
p407
F22.0
tp408
a(S't.'
p409
F22.0
tp410
a(S'r,'
p411
F22.0
tp412
a(S'rn'
p413
F21.0
tp414
a(S'ah'
p415
F21.0
tp416
a(S"'h"
p417
F20.0
tp418
a(S'op'
p419
F20.0
tp420
a(S' !'
p421
F20.0
tp422
a(S'sp'
p423
F20.0
tp424
a(S'hu'
p425
F19.0
tp426
a(S' y'
p427
F19.0
tp428
a(S'sc'
p429
F19.0
tp430
a(S'n.'
p431
F19.0
tp432
a(S'ab'
p433
F19.0
tp434
a(S'ye'
p435
F18.0
tp436
a(S'uv'
p437
F18.0
tp438
a(S'ru'
p439
F18.0
tp440
a(S'sq'
p441
F18.0
tp442
a(S'fi'
p443
F17.0
tp444
a(S'gn'
p445
F17.0
tp446
a(S'os'
p447
F17.0
tp448
a(S'ea'
p449
F17.0
tp450
a(S'ap'
p451
F17.0
tp452
a(S'; '
p453
F16.0
tp454
a(S'ff'
p455
F16.0
tp456
a(S'r.'
p457
F16.0
tp458
a(S'ng'
p459
F16.0
tp460
a(S'um'
p461
F15.0
tp462
a(S'up'
p463
F15.0
tp464
a(S'rm'
p465
F15.0
tp466
a(S'ex'
p467
F15.0
tp468
a(S'pi'
p469
F15.0
tp470
a(S'pp'
p471
F15.0
tp472
a(S'l,'
p473
F15.0
tp474
a(S' :'
p475
F15.0
tp476
a(S'nf'
p477
F15.0
tp478
a(S'1.'
p479
F14.0
tp480
a(S'2.'
p481
F14.0
tp482
a(S"j'"
p483
F14.0
tp484
a(S'gu'
p485
F14.0
tp486
a(S'h,'
p487
F14.0
tp488
a(S'h '
p489
F14.0
tp490
a(S't-'
p491
F14.0
tp492
a(S'oh'
p493
F14.0
tp494
a(S'ed'
p495
F14.0
tp496
a(S"s'"
p497
F14.0
tp498
a(S'gi'
p499
F13.0
tp500
a(S'ua'
p501
F13.0
tp502
a(S'nv'
p503
F13.0
tp504
a(S'a,'
p505
F13.0
tp506
a(S': '
p507
F12.0
tp508
a(S'ju'
p509
F12.0
tp510
a(S'ba'
p511
F12.0
tp512
a(S'ub'
p513
F12.0
tp514
a(S'oy'
p515
F12.0
tp516
a(S'? '
p517
F11.0
tp518
a(S'ug'
p519
F11.0
tp520
a(S'ef'
p521
F11.0
tp522
a(S'-i'
p523
F10.0
tp524
a(S'vr'
p525
F10.0
tp526
a(S'hi'
p527
F10.0
tp528
a(S'if'
p529
F10.0
tp530
a(S'd '
p531
F10.0
tp532
a(S'fu'
p533
F9.0
tp534
a(S'ys'
p535
F9.0
tp536
a(S'gl'
p537
F9.0
tp538
a(S'mu'
p539
F9.0
tp540
a(S'cc'
p541
F9.0
tp542
a(S"'y"
p543
F9.0
tp544
a(S'ix'
p545
F9.0
tp546
a(S' ?'
p547
F9.0
tp548
a(S'fr'
p549
F8.0
tp550
a(S'uf'
p551
F8.0
tp552
a(S'rg'
p553
F8.0
tp554
a(S'e!'
p555
F8.0
tp556
a(S'i.'
p557
F8.0
tp558
a(S' ;'
p559
F8.0
tp560
a(S'  '
p561
F8.0
tp562
a(S'.a'
p563
F7.0
tp564
a(S'x.'
p565
F7.0
tp566
a(S'uq'
p567
F7.0
tp568
a(S'ob'
p569
F7.0
tp570
a(S'rb'
p571
F7.0
tp572
a(S'rl'
p573
F7.0
tp574
a(S'l.'
p575
F7.0
tp576
a(S' 3'
p577
F7.0
tp578
a(S' ,'
p579
F7.0
tp580
a(S'nq'
p581
F7.0
tp582
a(S'fl'
p583
F6.0
tp584
a(S'z,'
p585
F6.0
tp586
a(S'.e'
p587
F6.0
tp588
a(S'uj'
p589
F6.0
tp590
a(S'ud'
p591
F6.0
tp592
a(S'od'
p593
F6.0
tp594
a(S'eq'
p595
F6.0
tp596
a(S'lt'
p597
F6.0
tp598
a(S' -'
p599
F6.0
tp600
a(S'aq'
p601
F6.0
tp602
a(S'a.'
p603
F6.0
tp604
a(S'd,'
p605
F6.0
tp606
a(S'3.'
p607
F5.0
tp608
a(S'-e'
p609
F5.0
tp610
a(S'ja'
p611
F5.0
tp612
a(S'u,'
p613
F5.0
tp614
a(S'e;'
p615
F5.0
tp616
a(S'eh'
p617
F5.0
tp618
a(S'ps'
p619
F5.0
tp620
a(S'af'
p621
F5.0
tp622
a(S'ya'
p623
F4.0
tp624
a(S'..'
p625
F4.0
tp626
a(S'xt'
p627
F4.0
tp628
a(S'x,'
p629
F4.0
tp630
a(S'xi'
p631
F4.0
tp632
a(S'xp'
p633
F4.0
tp634
a(S"m'"
p635
F4.0
tp636
a(S'h!'
p637
F4.0
tp638
a(S'bu'
p639
F4.0
tp640
a(S'u.'
p641
F4.0
tp642
a(S'og'
p643
F4.0
tp644
a(S'e-'
p645
F4.0
tp646
a(S'lq'
p647
F4.0
tp648
a(S's-'
p649
F4.0
tp650
a(S'sf'
p651
F4.0
tp652
a(S'ad'
p653
F4.0
tp654
a(S'0 '
p655
F3.0
tp656
a(S'9 '
p657
F3.0
tp658
a(S'8 '
p659
F3.0
tp660
a(S'7 '
p661
F3.0
tp662
a(S'6 '
p663
F3.0
tp664
a(S'5 '
p665
F3.0
tp666
a(S'4 '
p667
F3.0
tp668
a(S'3 '
p669
F3.0
tp670
a(S'2 '
p671
F3.0
tp672
a(S'-o'
p673
F3.0
tp674
a(S'-l'
p675
F3.0
tp676
a(S'- '
p677
F3.0
tp678
a(S'-d'
p679
F3.0
tp680
a(S'f '
p681
F3.0
tp682
a(S'.o'
p683
F3.0
tp684
a(S'.i'
p685
F3.0
tp686
a(S'x-'
p687
F3.0
tp688
a(S'xc'
p689
F3.0
tp690
a(S'xe'
p691
F3.0
tp692
a(S'gt'
p693
F3.0
tp694
a(S'go'
p695
F3.0
tp696
a(S'c.'
p697
F3.0
tp698
a(S'cs'
p699
F3.0
tp700
a(S'oq'
p701
F3.0
tp702
a(S'oe'
p703
F3.0
tp704
a(S'rp'
p705
F3.0
tp706
a(S'ej'
p707
F3.0
tp708
a(S'eb'
p709
F3.0
tp710
a(S'i!'
p711
F3.0
tp712
a(S'ip'
p713
F3.0
tp714
a(S'pt'
p715
F3.0
tp716
a(S' .'
p717
F3.0
tp718
a(S's!'
p719
F3.0
tp720
a(S'n-'
p721
F3.0
tp722
a(S'nj'
p723
F3.0
tp724
a(S'1 '
p725
F2.0
tp726
a(S'!e'
p727
F2.0
tp728
a(S'-f'
p729
F2.0
tp730
a(S'-v'
p731
F2.0
tp732
a(S'-m'
p733
F2.0
tp734
a(S'-t'
p735
F2.0
tp736
a(S'q '
p737
F2.0
tp738
a(S'y,'
p739
F2.0
tp740
a(S'yn'
p741
F2.0
tp742
a(S'.v'
p743
F2.0
tp744
a(S'.m'
p745
F2.0
tp746
a(S'ki'
p747
F2.0
tp748
a(S'g.'
p749
F2.0
tp750
a(S'vu'
p751
F2.0
tp752
a(S'm.'
p753
F2.0
tp754
a(S'bs'
p755
F2.0
tp756
a(S"'."
p757
F2.0
tp758
a(S'u?'
p759
F2.0
tp760
a(S'of'
p761
F2.0
tp762
a(S'oo'
p763
F2.0
tp764
a(S'r!'
p765
F2.0
tp766
a(S'rv'
p767
F2.0
tp768
a(S'p '
p769
F2.0
tp770
a(S'lc'
p771
F2.0
tp772
a(S' 4'
p773
F2.0
tp774
a(S' k'
p775
F2.0
tp776
a(S" '"
p777
F2.0
tp778
a(S'sy'
p779
F2.0
tp780
a(S'nh'
p781
F2.0
tp782
a(S'd.'
p783
F2.0
tp784
a(S'4.'
p785
F1.0
tp786
a(S'30'
p787
F1.0
tp788
a(S'10'
p789
F1.0
tp790
a(S'19'
p791
F1.0
tp792
a(S'18'
p793
F1.0
tp794
a(S'17'
p795
F1.0
tp796
a(S'16'
p797
F1.0
tp798
a(S'15'
p799
F1.0
tp800
a(S'14'
p801
F1.0
tp802
a(S'13'
p803
F1.0
tp804
a(S'11'
p805
F1.0
tp806
a(S'12'
p807
F1.0
tp808
a(S'20'
p809
F1.0
tp810
a(S'29'
p811
F1.0
tp812
a(S'28'
p813
F1.0
tp814
a(S'27'
p815
F1.0
tp816
a(S'26'
p817
F1.0
tp818
a(S'25'
p819
F1.0
tp820
a(S'24'
p821
F1.0
tp822
a(S'23'
p823
F1.0
tp824
a(S'21'
p825
F1.0
tp826
a(S'22'
p827
F1.0
tp828
a(S'!-'
p829
F1.0
tp830
a(S'!j'
p831
F1.0
tp832
a(S'!m'
p833
F1.0
tp834
a(S'!o'
p835
F1.0
tp836
a(S'?!'
p837
F1.0
tp838
a(S'?v'
p839
F1.0
tp840
a(S'?o'
p841
F1.0
tp842
a(S'?,'
p843
F1.0
tp844
a(S'?e'
p845
F1.0
tp846
a(S'?p'
p847
F1.0
tp848
a(S'?a'
p849
F1.0
tp850
a(S'?d'
p851
F1.0
tp852
a(S':j'
p853
F1.0
tp854
a(S':v'
p855
F1.0
tp856
a(S':m'
p857
F1.0
tp858
a(S':c'
p859
F1.0
tp860
a(S':b'
p861
F1.0
tp862
a(S':n'
p863
F1.0
tp864
a(S'-q'
p865
F1.0
tp866
a(S'-h'
p867
F1.0
tp868
a(S'-c'
p869
F1.0
tp870
a(S'-r'
p871
F1.0
tp872
a(S'-p'
p873
F1.0
tp874
a(S'-n'
p875
F1.0
tp876
a(S'j '
p877
F1.0
tp878
a(S'f.'
p879
F1.0
tp880
a(S'fs'
p881
F1.0
tp882
a(S'z-'
p883
F1.0
tp884
a(S'zo'
p885
F1.0
tp886
a(S'y.'
p887
F1.0
tp888
a(S'yo'
p889
F1.0
tp890
a(S'yr'
p891
F1.0
tp892
a(S'.j'
p893
F1.0
tp894
a(S'.c'
p895
F1.0
tp896
a(S'.b'
p897
F1.0
tp898
a(S'.l'
p899
F1.0
tp900
a(S'.s'
p901
F1.0
tp902
a(S'.n'
p903
F1.0
tp904
a(S'.d'
p905
F1.0
tp906
a(S'x;'
p907
F1.0
tp908
a(S'xa'
p909
F1.0
tp910
a(S'gg'
p911
F1.0
tp912
a(S'gs'
p913
F1.0
tp914
a(S'm '
p915
F1.0
tp916
a(S'mn'
p917
F1.0
tp918
a(S'h?'
p919
F1.0
tp920
a(S'hn'
p921
F1.0
tp922
a(S'c!'
p923
F1.0
tp924
a(S'bj'
p925
F1.0
tp926
a(S'bt'
p927
F1.0
tp928
a(S"' "
p929
F1.0
tp930
a(S't:'
p931
F1.0
tp932
a(S'ty'
p933
F1.0
tp934
a(S'tc'
p935
F1.0
tp936
a(S"t'"
p937
F1.0
tp938
a(S'tl'
p939
F1.0
tp940
a(S'u!'
p941
F1.0
tp942
a(S'oj'
p943
F1.0
tp944
a(S'ox'
p945
F1.0
tp946
a(S'ov'
p947
F1.0
tp948
a(S',c'
p949
F1.0
tp950
a(S',l'
p951
F1.0
tp952
a(S',a'
p953
F1.0
tp954
a(S'r?'
p955
F1.0
tp956
a(S'r-'
p957
F1.0
tp958
a(S'rj'
p959
F1.0
tp960
a(S"r'"
p961
F1.0
tp962
a(S'e?'
p963
F1.0
tp964
a(S'e:'
p965
F1.0
tp966
a(S"e'"
p967
F1.0
tp968
a(S'eo'
p969
F1.0
tp970
a(S'i?'
p971
F1.0
tp972
a(S'i-'
p973
F1.0
tp974
a(S'iz'
p975
F1.0
tp976
a(S'p;'
p977
F1.0
tp978
a(S'l-'
p979
F1.0
tp980
a(S'lm'
p981
F1.0
tp982
a(S'lh'
p983
F1.0
tp984
a(S'lp'
p985
F1.0
tp986
a(S' 9'
p987
F1.0
tp988
a(S' 8'
p989
F1.0
tp990
a(S' 7'
p991
F1.0
tp992
a(S' 6'
p993
F1.0
tp994
a(S' 5'
p995
F1.0
tp996
a(S's?'
p997
F1.0
tp998
a(S's;'
p999
F1.0
tp1000
a(S'n!'
p1001
F1.0
tp1002
a(S'n?'
p1003
F1.0
tp1004
a(S'nr'
p1005
F1.0
tp1006
a(S'a!'
p1007
F1.0
tp1008
a(S'a?'
p1009
F1.0
tp1010
a(S'a:'
p1011
F1.0
tp1012
a(S'a-'
p1013
F1.0
tp1014
a(S'aj'
p1015
F1.0
tp1016
a(S'd?'
p1017
F1.0
tp1018
a(S'd-'
p1019
F1.0
tp1020
a.